; ModuleID = '60/463.c'
source_filename = "60/463.c"
target datalayout = "e-m:e-p270:32:32-p271:32:32-p272:64:64-i64:64-f80:128-n8:16:32:64-S128"
target triple = "x86_64-pc-linux-gnu"

@.str = private unnamed_addr constant [3 x i8] c"%d\00", align 1
@.str.1 = private unnamed_addr constant [7 x i8] c"empty\0A\00", align 1
@.str.2 = private unnamed_addr constant [7 x i8] c"%d %d\0A\00", align 1

; Function Attrs: noinline nounwind uwtable
define dso_local void @main() #0 {
  %1 = alloca i32, align 4
  %2 = alloca i32, align 4
  %3 = alloca i32, align 4
  %4 = alloca [100000 x i32], align 16
  %5 = alloca i32, align 4
  %6 = alloca i32, align 4
  %7 = alloca [1000 x i32], align 16
  %8 = call i32 (i8*, ...) @__isoc99_scanf(i8* getelementptr inbounds ([3 x i8], [3 x i8]* @.str, i64 0, i64 0), i32* %3)
  store i32 1, i32* %1, align 4
  br label %9

9:                                                ; preds = %18, %0
  %10 = load i32, i32* %1, align 4
  %11 = load i32, i32* %3, align 4
  %12 = icmp sle i32 %10, %11
  br i1 %12, label %13, label %21

13:                                               ; preds = %9
  %14 = load i32, i32* %1, align 4
  %15 = load i32, i32* %1, align 4
  %16 = sext i32 %15 to i64
  %17 = getelementptr inbounds [100000 x i32], [100000 x i32]* %4, i64 0, i64 %16
  store i32 %14, i32* %17, align 4
  br label %18

18:                                               ; preds = %13
  %19 = load i32, i32* %1, align 4
  %20 = add nsw i32 %19, 1
  store i32 %20, i32* %1, align 4
  br label %9

21:                                               ; preds = %9
  %22 = getelementptr inbounds [100000 x i32], [100000 x i32]* %4, i64 0, i64 1
  store i32 0, i32* %22, align 4
  %23 = load i32, i32* %3, align 4
  %24 = icmp sle i32 %23, 2
  br i1 %24, label %25, label %27

25:                                               ; preds = %21
  %26 = call i32 (i8*, ...) @printf(i8* getelementptr inbounds ([7 x i8], [7 x i8]* @.str.1, i64 0, i64 0))
  br label %169

27:                                               ; preds = %21
  %28 = load i32, i32* %3, align 4
  %29 = icmp sgt i32 %28, 2
  br i1 %29, label %30, label %168

30:                                               ; preds = %27
  store i32 2, i32* %1, align 4
  br label %31

31:                                               ; preds = %78, %30
  %32 = load i32, i32* %1, align 4
  %33 = sitofp i32 %32 to double
  %34 = load i32, i32* %3, align 4
  %35 = sitofp i32 %34 to double
  %36 = call double @sqrt(double %35) #3
  %37 = fcmp olt double %33, %36
  br i1 %37, label %38, label %81

38:                                               ; preds = %31
  %39 = load i32, i32* %1, align 4
  %40 = add nsw i32 %39, 1
  store i32 %40, i32* %2, align 4
  br label %41

41:                                               ; preds = %74, %38
  %42 = load i32, i32* %2, align 4
  %43 = load i32, i32* %3, align 4
  %44 = icmp sle i32 %42, %43
  br i1 %44, label %45, label %77

45:                                               ; preds = %41
  %46 = load i32, i32* %1, align 4
  %47 = sext i32 %46 to i64
  %48 = getelementptr inbounds [100000 x i32], [100000 x i32]* %4, i64 0, i64 %47
  %49 = load i32, i32* %48, align 4
  %50 = icmp ne i32 %49, 0
  br i1 %50, label %51, label %73

51:                                               ; preds = %45
  %52 = load i32, i32* %2, align 4
  %53 = sext i32 %52 to i64
  %54 = getelementptr inbounds [100000 x i32], [100000 x i32]* %4, i64 0, i64 %53
  %55 = load i32, i32* %54, align 4
  %56 = icmp ne i32 %55, 0
  br i1 %56, label %57, label %73

57:                                               ; preds = %51
  %58 = load i32, i32* %2, align 4
  %59 = sext i32 %58 to i64
  %60 = getelementptr inbounds [100000 x i32], [100000 x i32]* %4, i64 0, i64 %59
  %61 = load i32, i32* %60, align 4
  %62 = load i32, i32* %1, align 4
  %63 = sext i32 %62 to i64
  %64 = getelementptr inbounds [100000 x i32], [100000 x i32]* %4, i64 0, i64 %63
  %65 = load i32, i32* %64, align 4
  %66 = srem i32 %61, %65
  %67 = icmp eq i32 %66, 0
  br i1 %67, label %68, label %72

68:                                               ; preds = %57
  %69 = load i32, i32* %2, align 4
  %70 = sext i32 %69 to i64
  %71 = getelementptr inbounds [100000 x i32], [100000 x i32]* %4, i64 0, i64 %70
  store i32 0, i32* %71, align 4
  br label %72

72:                                               ; preds = %68, %57
  br label %73

73:                                               ; preds = %72, %51, %45
  br label %74

74:                                               ; preds = %73
  %75 = load i32, i32* %2, align 4
  %76 = add nsw i32 %75, 1
  store i32 %76, i32* %2, align 4
  br label %41

77:                                               ; preds = %41
  br label %78

78:                                               ; preds = %77
  %79 = load i32, i32* %1, align 4
  %80 = add nsw i32 %79, 1
  store i32 %80, i32* %1, align 4
  br label %31

81:                                               ; preds = %31
  store i32 1, i32* %2, align 4
  store i32 1, i32* %1, align 4
  br label %82

82:                                               ; preds = %103, %81
  %83 = load i32, i32* %1, align 4
  %84 = load i32, i32* %3, align 4
  %85 = icmp sle i32 %83, %84
  br i1 %85, label %86, label %106

86:                                               ; preds = %82
  %87 = load i32, i32* %1, align 4
  %88 = sext i32 %87 to i64
  %89 = getelementptr inbounds [100000 x i32], [100000 x i32]* %4, i64 0, i64 %88
  %90 = load i32, i32* %89, align 4
  %91 = icmp ne i32 %90, 0
  br i1 %91, label %92, label %102

92:                                               ; preds = %86
  %93 = load i32, i32* %1, align 4
  %94 = sext i32 %93 to i64
  %95 = getelementptr inbounds [100000 x i32], [100000 x i32]* %4, i64 0, i64 %94
  %96 = load i32, i32* %95, align 4
  %97 = load i32, i32* %2, align 4
  %98 = sext i32 %97 to i64
  %99 = getelementptr inbounds [1000 x i32], [1000 x i32]* %7, i64 0, i64 %98
  store i32 %96, i32* %99, align 4
  %100 = load i32, i32* %2, align 4
  %101 = add nsw i32 %100, 1
  store i32 %101, i32* %2, align 4
  br label %102

102:                                              ; preds = %92, %86
  br label %103

103:                                              ; preds = %102
  %104 = load i32, i32* %1, align 4
  %105 = add nsw i32 %104, 1
  store i32 %105, i32* %1, align 4
  br label %82

106:                                              ; preds = %82
  %107 = load i32, i32* %2, align 4
  store i32 %107, i32* %5, align 4
  store i32 0, i32* %6, align 4
  store i32 1, i32* %1, align 4
  br label %108

108:                                              ; preds = %126, %106
  %109 = load i32, i32* %1, align 4
  %110 = load i32, i32* %5, align 4
  %111 = icmp slt i32 %109, %110
  br i1 %111, label %112, label %129

112:                                              ; preds = %108
  %113 = load i32, i32* %1, align 4
  %114 = add nsw i32 %113, 1
  %115 = sext i32 %114 to i64
  %116 = getelementptr inbounds [1000 x i32], [1000 x i32]* %7, i64 0, i64 %115
  %117 = load i32, i32* %116, align 4
  %118 = load i32, i32* %1, align 4
  %119 = sext i32 %118 to i64
  %120 = getelementptr inbounds [1000 x i32], [1000 x i32]* %7, i64 0, i64 %119
  %121 = load i32, i32* %120, align 4
  %122 = sub nsw i32 %117, %121
  %123 = icmp eq i32 %122, 2
  br i1 %123, label %124, label %125

124:                                              ; preds = %112
  store i32 1, i32* %6, align 4
  br label %129

125:                                              ; preds = %112
  br label %126

126:                                              ; preds = %125
  %127 = load i32, i32* %1, align 4
  %128 = add nsw i32 %127, 1
  store i32 %128, i32* %1, align 4
  br label %108

129:                                              ; preds = %124, %108
  %130 = load i32, i32* %6, align 4
  %131 = icmp eq i32 %130, 0
  br i1 %131, label %132, label %134

132:                                              ; preds = %129
  %133 = call i32 (i8*, ...) @printf(i8* getelementptr inbounds ([7 x i8], [7 x i8]* @.str.1, i64 0, i64 0))
  br label %167

134:                                              ; preds = %129
  store i32 1, i32* %1, align 4
  br label %135

135:                                              ; preds = %163, %134
  %136 = load i32, i32* %1, align 4
  %137 = load i32, i32* %5, align 4
  %138 = icmp slt i32 %136, %137
  br i1 %138, label %139, label %166

139:                                              ; preds = %135
  %140 = load i32, i32* %1, align 4
  %141 = add nsw i32 %140, 1
  %142 = sext i32 %141 to i64
  %143 = getelementptr inbounds [1000 x i32], [1000 x i32]* %7, i64 0, i64 %142
  %144 = load i32, i32* %143, align 4
  %145 = load i32, i32* %1, align 4
  %146 = sext i32 %145 to i64
  %147 = getelementptr inbounds [1000 x i32], [1000 x i32]* %7, i64 0, i64 %146
  %148 = load i32, i32* %147, align 4
  %149 = sub nsw i32 %144, %148
  %150 = icmp eq i32 %149, 2
  br i1 %150, label %151, label %162

151:                                              ; preds = %139
  %152 = load i32, i32* %1, align 4
  %153 = sext i32 %152 to i64
  %154 = getelementptr inbounds [1000 x i32], [1000 x i32]* %7, i64 0, i64 %153
  %155 = load i32, i32* %154, align 4
  %156 = load i32, i32* %1, align 4
  %157 = add nsw i32 %156, 1
  %158 = sext i32 %157 to i64
  %159 = getelementptr inbounds [1000 x i32], [1000 x i32]* %7, i64 0, i64 %158
  %160 = load i32, i32* %159, align 4
  %161 = call i32 (i8*, ...) @printf(i8* getelementptr inbounds ([7 x i8], [7 x i8]* @.str.2, i64 0, i64 0), i32 %155, i32 %160)
  br label %162

162:                                              ; preds = %151, %139
  br label %163

163:                                              ; preds = %162
  %164 = load i32, i32* %1, align 4
  %165 = add nsw i32 %164, 1
  store i32 %165, i32* %1, align 4
  br label %135

166:                                              ; preds = %135
  br label %167

167:                                              ; preds = %166, %132
  br label %168

168:                                              ; preds = %167, %27
  br label %169

169:                                              ; preds = %168, %25
  ret void
}

declare dso_local i32 @__isoc99_scanf(i8*, ...) #1

declare dso_local i32 @printf(i8*, ...) #1

; Function Attrs: nounwind
declare dso_local double @sqrt(double) #2


!llvm.module.flags = !{!0}
!llvm.ident = !{!1}

!0 = !{i32 1, !"wchar_size", i32 4}
!1 = !{!"clang version 10.0.0-4ubuntu1 "}
